(dp0
S'key'
p1
(dp2
S'corr'
p3
F-0.009422731242725888
sS'nb_elements'
p4
I402137
ssS'tempo'
p5
(dp6
g3
F0.023731724658644104
sg4
I456297
ssS'longitude'
p7
(dp8
g3
F0.02551165483018819
sg4
I166131
ssS'latitude'
p9
(dp10
g3
F0.05620025940320091
sg4
I166131
ssS'time_signature'
p11
(dp12
g3
F0.027484173589606704
sg4
I457017
ssS'year'
p13
(dp14
g3
F0.09264981128630362
sg4
I306298
ssS'duration'
p15
(dp16
g3
F-0.019091420674734242
sg4
I457205
ssS'loudness'
p17
(dp18
g3
F0.14315612952335408
sg4
I457205
ss.